target datalayout = "e-m:e-p270:32:32-p271:32:32-p272:64:64-i64:64-i128:128-f80:128-n8:16:32:64-S128"
target triple = "x86_64-pc-linux-gnu"

@Extra_Truth6ChangePhase.Truth6 = internal global [6 x i64] [i64 -6148914691236517206, i64 -3689348814741910324, i64 -1085102592571150096, i64 -71777214294589696, i64 -281470681808896, i64 -4294967296], align 16

; Function Attrs: nounwind uwtable
define i32 @adjustInfoAfterSwap(ptr noundef %0, i32 noundef %1, i32 noundef %2, i32 noundef %3) #0 {
  %5 = alloca i32, align 4
  %6 = alloca ptr, align 8
  %7 = alloca i32, align 4
  %8 = alloca i32, align 4
  %9 = alloca i32, align 4
  %10 = alloca i8, align 1
  store ptr %0, ptr %6, align 8, !tbaa !3
  store i32 %1, ptr %7, align 4, !tbaa !9
  store i32 %2, ptr %8, align 4, !tbaa !9
  store i32 %3, ptr %9, align 4, !tbaa !9
  %11 = load i32, ptr %9, align 4, !tbaa !9
  %12 = icmp ult i32 %11, 4
  br i1 %12, label %13, label %19

13:                                               ; preds = %4
  %14 = load i32, ptr %9, align 4, !tbaa !9
  %15 = load i32, ptr %8, align 4, !tbaa !9
  %16 = shl i32 %14, %15
  %17 = load i32, ptr %7, align 4, !tbaa !9
  %18 = xor i32 %17, %16
  store i32 %18, ptr %7, align 4, !tbaa !9
  store i32 %18, ptr %5, align 4
  br label %73

19:                                               ; preds = %4
  call void @llvm.lifetime.start.p0(i64 1, ptr %10) #4
  %20 = load i32, ptr %9, align 4, !tbaa !9
  %21 = sub i32 %20, 4
  %22 = load i32, ptr %8, align 4, !tbaa !9
  %23 = shl i32 %21, %22
  %24 = load i32, ptr %7, align 4, !tbaa !9
  %25 = xor i32 %24, %23
  store i32 %25, ptr %7, align 4, !tbaa !9
  %26 = load ptr, ptr %6, align 8, !tbaa !3
  %27 = load i32, ptr %8, align 4, !tbaa !9
  %28 = sext i32 %27 to i64
  %29 = getelementptr inbounds i8, ptr %26, i64 %28
  %30 = load i8, ptr %29, align 1, !tbaa !8
  store i8 %30, ptr %10, align 1, !tbaa !8
  %31 = load ptr, ptr %6, align 8, !tbaa !3
  %32 = load i32, ptr %8, align 4, !tbaa !9
  %33 = add nsw i32 %32, 1
  %34 = sext i32 %33 to i64
  %35 = getelementptr inbounds i8, ptr %31, i64 %34
  %36 = load i8, ptr %35, align 1, !tbaa !8
  %37 = load ptr, ptr %6, align 8, !tbaa !3
  %38 = load i32, ptr %8, align 4, !tbaa !9
  %39 = sext i32 %38 to i64
  %40 = getelementptr inbounds i8, ptr %37, i64 %39
  store i8 %36, ptr %40, align 1, !tbaa !8
  %41 = load i8, ptr %10, align 1, !tbaa !8
  %42 = load ptr, ptr %6, align 8, !tbaa !3
  %43 = load i32, ptr %8, align 4, !tbaa !9
  %44 = add nsw i32 %43, 1
  %45 = sext i32 %44 to i64
  %46 = getelementptr inbounds i8, ptr %42, i64 %45
  store i8 %41, ptr %46, align 1, !tbaa !8
  %47 = load i32, ptr %7, align 4, !tbaa !9
  %48 = load i32, ptr %8, align 4, !tbaa !9
  %49 = shl i32 1, %48
  %50 = and i32 %47, %49
  %51 = icmp ugt i32 %50, 0
  %52 = zext i1 %51 to i32
  %53 = load i32, ptr %7, align 4, !tbaa !9
  %54 = load i32, ptr %8, align 4, !tbaa !9
  %55 = add nsw i32 %54, 1
  %56 = shl i32 1, %55
  %57 = and i32 %53, %56
  %58 = icmp ugt i32 %57, 0
  %59 = zext i1 %58 to i32
  %60 = icmp ne i32 %52, %59
  br i1 %60, label %61, label %71

61:                                               ; preds = %19
  %62 = load i32, ptr %8, align 4, !tbaa !9
  %63 = shl i32 1, %62
  %64 = load i32, ptr %7, align 4, !tbaa !9
  %65 = xor i32 %64, %63
  store i32 %65, ptr %7, align 4, !tbaa !9
  %66 = load i32, ptr %8, align 4, !tbaa !9
  %67 = add nsw i32 %66, 1
  %68 = shl i32 1, %67
  %69 = load i32, ptr %7, align 4, !tbaa !9
  %70 = xor i32 %69, %68
  store i32 %70, ptr %7, align 4, !tbaa !9
  br label %71

71:                                               ; preds = %61, %19
  %72 = load i32, ptr %7, align 4, !tbaa !9
  store i32 %72, ptr %5, align 4
  call void @llvm.lifetime.end.p0(i64 1, ptr %10) #4
  br label %73

73:                                               ; preds = %71, %13
  %74 = load i32, ptr %5, align 4
  ret i32 %74
}

; Function Attrs: nounwind uwtable
define i64 @Extra_Truth6SwapAdjacent(i64 noundef %0, i32 noundef %1) #0 {
  %3 = alloca i64, align 8
  %4 = alloca i32, align 4
  store i64 %0, ptr %3, align 8, !tbaa !13
  store i32 %1, ptr %4, align 4, !tbaa !9
  %5 = load i64, ptr %3, align 8, !tbaa !13
  %6 = load i32, ptr %4, align 4, !tbaa !9
  %7 = sext i32 %6 to i64
  %8 = getelementptr inbounds [5 x [3 x i64]], ptr @Extra_Truth6SwapAdjacent.PMasks, i64 0, i64 %7
  %9 = getelementptr inbounds [3 x i64], ptr %8, i64 0, i64 0
  %10 = load i64, ptr %9, align 8, !tbaa !13
  %11 = and i64 %5, %10
  %12 = load i64, ptr %3, align 8, !tbaa !13
  %13 = load i32, ptr %4, align 4, !tbaa !9
  %14 = sext i32 %13 to i64
  %15 = getelementptr inbounds [5 x [3 x i64]], ptr @Extra_Truth6SwapAdjacent.PMasks, i64 0, i64 %14
  %16 = getelementptr inbounds [3 x i64], ptr %15, i64 0, i64 1
  %17 = load i64, ptr %16, align 8, !tbaa !13
  %18 = and i64 %12, %17
  %19 = load i32, ptr %4, align 4, !tbaa !9
  %20 = shl i32 1, %19
  %21 = zext i32 %20 to i64
  %22 = shl i64 %18, %21
  %23 = or i64 %11, %22
  %24 = load i64, ptr %3, align 8, !tbaa !13
  %25 = load i32, ptr %4, align 4, !tbaa !9
  %26 = sext i32 %25 to i64
  %27 = getelementptr inbounds [5 x [3 x i64]], ptr @Extra_Truth6SwapAdjacent.PMasks, i64 0, i64 %26
  %28 = getelementptr inbounds [3 x i64], ptr %27, i64 0, i64 2
  %29 = load i64, ptr %28, align 8, !tbaa !13
  %30 = and i64 %24, %29
  %31 = load i32, ptr %4, align 4, !tbaa !9
  %32 = shl i32 1, %31
  %33 = zext i32 %32 to i64
  %34 = lshr i64 %30, %33
  %35 = or i64 %23, %34
  ret i64 %35
}

; Function Attrs: nounwind uwtable
define i64 @Extra_Truth6ChangePhase(i64 noundef %0, i32 noundef %1) #0 {
  %3 = alloca i64, align 8
  %4 = alloca i32, align 4
  store i64 %0, ptr %3, align 8, !tbaa !13
  store i32 %1, ptr %4, align 4, !tbaa !9
  %5 = load i64, ptr %3, align 8, !tbaa !13
  %6 = load i32, ptr %4, align 4, !tbaa !9
  %7 = sext i32 %6 to i64
  %8 = getelementptr inbounds [6 x i64], ptr @Extra_Truth6ChangePhase.Truth6, i64 0, i64 %7
  %9 = load i64, ptr %8, align 8, !tbaa !13
  %10 = xor i64 %9, -1
  %11 = and i64 %5, %10
  %12 = load i32, ptr %4, align 4, !tbaa !9
  %13 = shl i32 1, %12
  %14 = zext i32 %13 to i64
  %15 = shl i64 %11, %14
  %16 = load i64, ptr %3, align 8, !tbaa !13
  %17 = load i32, ptr %4, align 4, !tbaa !9
  %18 = sext i32 %17 to i64
  %19 = getelementptr inbounds [6 x i64], ptr @Extra_Truth6ChangePhase.Truth6, i64 0, i64 %18
  %20 = load i64, ptr %19, align 8, !tbaa !13
  %21 = and i64 %16, %20
  %22 = load i32, ptr %4, align 4, !tbaa !9
  %23 = shl i32 1, %22
  %24 = zext i32 %23 to i64
  %25 = lshr i64 %21, %24
  %26 = or i64 %15, %25
  ret i64 %26
}

; Function Attrs: nounwind uwtable
define i64 @Extra_Truth6MinimumRoundOne(i64 noundef %0, i32 noundef %1, ptr noundef %2, ptr noundef %3) #0 {
  %5 = alloca i64, align 8
  %6 = alloca i64, align 8
  %7 = alloca i32, align 4
  %8 = alloca ptr, align 8
  %9 = alloca ptr, align 8
  %10 = alloca i64, align 8
  %11 = alloca i64, align 8
  %12 = alloca i32, align 4
  %13 = alloca i32, align 4
  store i64 %0, ptr %6, align 8, !tbaa !13
  store i32 %1, ptr %7, align 4, !tbaa !9
  store ptr %2, ptr %8, align 8, !tbaa !3
  store ptr %3, ptr %9, align 8, !tbaa !15
  call void @llvm.lifetime.start.p0(i64 8, ptr %10) #4
  call void @llvm.lifetime.start.p0(i64 8, ptr %11) #4
  %14 = load i64, ptr %6, align 8, !tbaa !13
  store i64 %14, ptr %11, align 8, !tbaa !13
  call void @llvm.lifetime.start.p0(i64 4, ptr %12) #4
  store i32 0, ptr %12, align 4, !tbaa !9
  %15 = load i64, ptr %6, align 8, !tbaa !13
  %16 = load i32, ptr %7, align 4, !tbaa !9
  %17 = call i64 @Extra_Truth6ChangePhase(i64 noundef %15, i32 noundef %16)
  store i64 %17, ptr %10, align 8, !tbaa !13
  %18 = load i64, ptr %10, align 8, !tbaa !13
  %19 = load i64, ptr %11, align 8, !tbaa !13
  %20 = icmp ult i64 %18, %19
  br i1 %20, label %21, label %23

21:                                               ; preds = %4
  store i32 1, ptr %12, align 4, !tbaa !9
  %22 = load i64, ptr %10, align 8, !tbaa !13
  store i64 %22, ptr %11, align 8, !tbaa !13
  br label %23

23:                                               ; preds = %21, %4
  %24 = load i64, ptr %6, align 8, !tbaa !13
  %25 = load i32, ptr %7, align 4, !tbaa !9
  %26 = add nsw i32 %25, 1
  %27 = call i64 @Extra_Truth6ChangePhase(i64 noundef %24, i32 noundef %26)
  store i64 %27, ptr %10, align 8, !tbaa !13
  %28 = load i64, ptr %10, align 8, !tbaa !13
  %29 = load i64, ptr %11, align 8, !tbaa !13
  %30 = icmp ult i64 %28, %29
  br i1 %30, label %31, label %33

31:                                               ; preds = %23
  store i32 2, ptr %12, align 4, !tbaa !9
  %32 = load i64, ptr %10, align 8, !tbaa !13
  store i64 %32, ptr %11, align 8, !tbaa !13
  br label %33

33:                                               ; preds = %31, %23
  %34 = load i64, ptr %10, align 8, !tbaa !13
  %35 = load i32, ptr %7, align 4, !tbaa !9
  %36 = call i64 @Extra_Truth6ChangePhase(i64 noundef %34, i32 noundef %35)
  store i64 %36, ptr %10, align 8, !tbaa !13
  %37 = load i64, ptr %10, align 8, !tbaa !13
  %38 = load i64, ptr %11, align 8, !tbaa !13
  %39 = icmp ult i64 %37, %38
  br i1 %39, label %40, label %42

40:                                               ; preds = %33
  store i32 3, ptr %12, align 4, !tbaa !9
  %41 = load i64, ptr %10, align 8, !tbaa !13
  store i64 %41, ptr %11, align 8, !tbaa !13
  br label %42

42:                                               ; preds = %40, %33
  %43 = load i64, ptr %6, align 8, !tbaa !13
  %44 = load i32, ptr %7, align 4, !tbaa !9
  %45 = call i64 @Extra_Truth6SwapAdjacent(i64 noundef %43, i32 noundef %44)
  store i64 %45, ptr %6, align 8, !tbaa !13
  %46 = load i64, ptr %6, align 8, !tbaa !13
  %47 = load i64, ptr %11, align 8, !tbaa !13
  %48 = icmp ult i64 %46, %47
  br i1 %48, label %49, label %51

49:                                               ; preds = %42
  store i32 4, ptr %12, align 4, !tbaa !9
  %50 = load i64, ptr %6, align 8, !tbaa !13
  store i64 %50, ptr %11, align 8, !tbaa !13
  br label %51

51:                                               ; preds = %49, %42
  %52 = load i64, ptr %6, align 8, !tbaa !13
  %53 = load i32, ptr %7, align 4, !tbaa !9
  %54 = call i64 @Extra_Truth6ChangePhase(i64 noundef %52, i32 noundef %53)
  store i64 %54, ptr %10, align 8, !tbaa !13
  %55 = load i64, ptr %10, align 8, !tbaa !13
  %56 = load i64, ptr %11, align 8, !tbaa !13
  %57 = icmp ult i64 %55, %56
  br i1 %57, label %58, label %60

58:                                               ; preds = %51
  store i32 6, ptr %12, align 4, !tbaa !9
  %59 = load i64, ptr %10, align 8, !tbaa !13
  store i64 %59, ptr %11, align 8, !tbaa !13
  br label %60

60:                                               ; preds = %58, %51
  %61 = load i64, ptr %6, align 8, !tbaa !13
  %62 = load i32, ptr %7, align 4, !tbaa !9
  %63 = add nsw i32 %62, 1
  %64 = call i64 @Extra_Truth6ChangePhase(i64 noundef %61, i32 noundef %63)
  store i64 %64, ptr %10, align 8, !tbaa !13
  %65 = load i64, ptr %10, align 8, !tbaa !13
  %66 = load i64, ptr %11, align 8, !tbaa !13
  %67 = icmp ult i64 %65, %66
  br i1 %67, label %68, label %70

68:                                               ; preds = %60
  store i32 5, ptr %12, align 4, !tbaa !9
  %69 = load i64, ptr %10, align 8, !tbaa !13
  store i64 %69, ptr %11, align 8, !tbaa !13
  br label %70

70:                                               ; preds = %68, %60
  %71 = load i64, ptr %10, align 8, !tbaa !13
  %72 = load i32, ptr %7, align 4, !tbaa !9
  %73 = call i64 @Extra_Truth6ChangePhase(i64 noundef %71, i32 noundef %72)
  store i64 %73, ptr %10, align 8, !tbaa !13
  %74 = load i64, ptr %10, align 8, !tbaa !13
  %75 = load i64, ptr %11, align 8, !tbaa !13
  %76 = icmp ult i64 %74, %75
  br i1 %76, label %77, label %85

77:                                               ; preds = %70
  %78 = load ptr, ptr %8, align 8, !tbaa !3
  %79 = load ptr, ptr %9, align 8, !tbaa !15
  %80 = load i32, ptr %79, align 4, !tbaa !9
  %81 = load i32, ptr %7, align 4, !tbaa !9
  %82 = call i32 @adjustInfoAfterSwap(ptr noundef %78, i32 noundef %80, i32 noundef %81, i32 noundef 7)
  %83 = load ptr, ptr %9, align 8, !tbaa !15
  store i32 %82, ptr %83, align 4, !tbaa !9
  %84 = load i64, ptr %10, align 8, !tbaa !13
  store i64 %84, ptr %5, align 8
  store i32 1, ptr %13, align 4
  br label %94

85:                                               ; preds = %70
  %86 = load ptr, ptr %8, align 8, !tbaa !3
  %87 = load ptr, ptr %9, align 8, !tbaa !15
  %88 = load i32, ptr %87, align 4, !tbaa !9
  %89 = load i32, ptr %7, align 4, !tbaa !9
  %90 = load i32, ptr %12, align 4, !tbaa !9
  %91 = call i32 @adjustInfoAfterSwap(ptr noundef %86, i32 noundef %88, i32 noundef %89, i32 noundef %90)
  %92 = load ptr, ptr %9, align 8, !tbaa !15
  store i32 %91, ptr %92, align 4, !tbaa !9
  %93 = load i64, ptr %11, align 8, !tbaa !13
  store i64 %93, ptr %5, align 8
  store i32 1, ptr %13, align 4
  br label %94

94:                                               ; preds = %85, %77
  call void @llvm.lifetime.end.p0(i64 4, ptr %12) #4
  call void @llvm.lifetime.end.p0(i64 8, ptr %11) #4
  call void @llvm.lifetime.end.p0(i64 8, ptr %10) #4
  %95 = load i64, ptr %5, align 8
  ret i64 %95
}