; Function Attrs: mustprogress nofree norecurse nosync nounwind willreturn memory(argmem: readwrite) uwtable
define i64 @Extra_Truth6MinimumRoundOne(i64 noundef %0, i32 noundef %1, ptr noundef captures(none) %2, ptr noundef captures(none) %3) local_unnamed_addr #3 {
  %5 = sext i32 %1 to i64
  %6 = getelementptr inbounds [6 x i64], ptr @Extra_Truth6ChangePhase.Truth6, i64 0, i64 %5
  %7 = load i64, ptr %6, align 8, !tbaa !10
  %8 = xor i64 %7, -1
  %9 = and i64 %0, %8
  %10 = shl nuw i32 1, %1
  %11 = zext i32 %10 to i64
  %12 = shl i64 %9, %11
  %13 = and i64 %7, %0
  %14 = lshr i64 %13, %11
  %15 = or i64 %12, %14
  %16 = icmp ult i64 %15, %0
  %spec.select = tail call i64 @llvm.umin.i64(i64 %15, i64 %0)
  %spec.select61 = zext i1 %16 to i32
  %17 = add nsw i32 %1, 1
  %18 = sext i32 %17 to i64
  %19 = getelementptr inbounds [6 x i64], ptr @Extra_Truth6ChangePhase.Truth6, i64 0, i64 %18
  %20 = load i64, ptr %19, align 8, !tbaa !10
  %21 = xor i64 %20, -1
  %22 = and i64 %0, %21
  %23 = shl nuw i32 1, %17
  %24 = zext i32 %23 to i64
  %25 = shl i64 %22, %24
  %26 = and i64 %20, %0
  %27 = lshr i64 %26, %24
  %28 = or i64 %25, %27
  %29 = icmp ult i64 %28, %spec.select
  %.147 = tail call i64 @llvm.umin.i64(i64 %28, i64 %spec.select)
  %.1 = select i1 %29, i32 2, i32 %spec.select61
  %30 = and i64 %28, %8
  %31 = shl i64 %30, %11
  %32 = and i64 %28, %7
  %33 = lshr i64 %32, %11
  %34 = or i64 %31, %33
  %35 = icmp ult i64 %34, %.147
  %.248 = tail call i64 @llvm.umin.i64(i64 %34, i64 %.147)
  %.2 = select i1 %35, i32 3, i32 %.1
  %36 = getelementptr inbounds [5 x [3 x i64]], ptr @Extra_Truth6SwapAdjacent.PMasks, i64 0, i64 %5
  %37 = load i64, ptr %36, align 8, !tbaa !10
  %38 = and i64 %37, %0
  %39 = getelementptr inbounds nuw i8, ptr %36, i64 8
  %40 = load i64, ptr %39, align 8, !tbaa !10
  %41 = and i64 %40, %0
  %42 = shl i64 %41, %11
  %43 = or i64 %42, %38
  %44 = getelementptr inbounds nuw i8, ptr %36, i64 16
  %45 = load i64, ptr %44, align 8, !tbaa !10
  %46 = and i64 %45, %0
  %47 = lshr i64 %46, %11
  %48 = or i64 %43, %47
  %49 = icmp ult i64 %48, %.248
  %.349 = tail call i64 @llvm.umin.i64(i64 %48, i64 %.248)
  %.3 = select i1 %49, i32 4, i32 %.2
  %50 = and i64 %48, %8
  %51 = shl i64 %50, %11
  %52 = and i64 %48, %7
  %53 = lshr i64 %52, %11
  %54 = or i64 %51, %53
  %55 = icmp ult i64 %54, %.349
  %.450 = tail call i64 @llvm.umin.i64(i64 %54, i64 %.349)
  %.4 = select i1 %55, i32 6, i32 %.3
  %56 = and i64 %48, %21
  %57 = shl i64 %56, %24
  %58 = and i64 %48, %20
  %59 = lshr i64 %58, %24
  %60 = or i64 %57, %59
  %61 = icmp ult i64 %60, %.450
  %.551 = tail call i64 @llvm.umin.i64(i64 %60, i64 %.450)
  %.5 = select i1 %61, i32 5, i32 %.4
  %62 = and i64 %60, %8
  %63 = shl i64 %62, %11
  %64 = and i64 %60, %7
  %65 = lshr i64 %64, %11
  %66 = or i64 %63, %65
  %67 = icmp ult i64 %66, %.551
  %68 = load i32, ptr %3, align 4, !tbaa !8
  br i1 %67, label %69, label %80

69:                                               ; preds = %4
  %70 = shl i32 3, %1
  %71 = xor i32 %68, %70
  %72 = getelementptr inbounds i8, ptr %2, i64 %5
  %73 = load i8, ptr %72, align 1, !tbaa !3
  %74 = getelementptr inbounds i8, ptr %2, i64 %18
  %75 = load i8, ptr %74, align 1, !tbaa !3
  store i8 %75, ptr %72, align 1, !tbaa !3
  store i8 %73, ptr %74, align 1, !tbaa !3
  %76 = lshr i32 %71, %1
  %77 = lshr i32 %71, %17
  %78 = xor i32 %76, %77
  %79 = and i32 %78, 1
  %.not.i = icmp eq i32 %79, 0
  %spec.select65 = select i1 %.not.i, i32 %71, i32 %68
  br label %adjustInfoAfterSwap.exit

80:                                               ; preds = %4
  %81 = icmp samesign ult i32 %.5, 4
  br i1 %81, label %82, label %85

82:                                               ; preds = %80
  %83 = shl i32 %.5, %1
  %84 = xor i32 %68, %83
  br label %adjustInfoAfterSwap.exit

85:                                               ; preds = %80
  %86 = add nsw i32 %.5, -4
  %87 = shl i32 %86, %1
  %88 = xor i32 %68, %87
  %89 = getelementptr inbounds i8, ptr %2, i64 %5
  %90 = load i8, ptr %89, align 1, !tbaa !3
  %91 = getelementptr inbounds i8, ptr %2, i64 %18
  %92 = load i8, ptr %91, align 1, !tbaa !3
  store i8 %92, ptr %89, align 1, !tbaa !3
  store i8 %90, ptr %91, align 1, !tbaa !3
  %93 = lshr i32 %88, %1
  %94 = lshr i32 %88, %17
  %95 = xor i32 %93, %94
  %96 = and i32 %95, 1
  %.not.i62 = icmp eq i32 %96, 0
  br i1 %.not.i62, label %adjustInfoAfterSwap.exit, label %97

97:                                               ; preds = %85
  %98 = xor i32 %86, 1
  %99 = shl i32 %98, %1
  %100 = xor i32 %99, %23
  %101 = xor i32 %100, %68
  br label %adjustInfoAfterSwap.exit

adjustInfoAfterSwap.exit:                         ; preds = %69, %97, %85, %82
  %storemerge = phi i32 [ %84, %82 ], [ %101, %97 ], [ %88, %85 ], [ %spec.select65, %69 ]
  %.052 = phi i64 [ %.551, %82 ], [ %.551, %97 ], [ %.551, %85 ], [ %66, %69 ]
  store i32 %storemerge, ptr %3, align 4, !tbaa !8
  ret i64 %.052
}